target datalayout = "e-m:e-p270:32:32-p271:32:32-p272:64:64-i64:64-i128:128-f80:128-n8:16:32:64-S128"
target triple = "x86_64-pc-linux-gnu"

%struct.t_atoms = type { i32, ptr, ptr, ptr, ptr, i32, ptr, ptr, i8, i8, i8, i8, i8 }
%"class.gmx::ArrayRef.67" = type { %"struct.gmx::ArrayRefIter.68", %"struct.gmx::ArrayRefIter.68" }
%"struct.gmx::ArrayRefIter.68" = type { ptr }
%struct.t_atom = type { float, float, float, float, i16, i16, i32, i32, i32, [4 x i8] }
%struct.t_resinfo = type { ptr, i32, i8, i32, i8, ptr }

@.str.6 = private unnamed_addr constant [1 x i8] zeroinitializer, align 1
@.str.45 = private unnamed_addr constant [2 x i8] c"\0A\00", align 1
@_ZL5bCase = internal global i8 0, align 1
@.str.140 = private unnamed_addr constant [2 x i8] c"s\00", align 1
@.str.151 = private unnamed_addr constant [4 x i8] c" %s\00", align 1
@.str.152 = private unnamed_addr constant [70 x i8] c"WARNING: Currently '*' is only supported at the end of an expression\0A\00", align 1
@.str.162 = private unnamed_addr constant [35 x i8] c"Found %d atoms with residue name%s\00", align 1

; Function Attrs: mustprogress nounwind uwtable
define linkonce_odr noundef nonnull align 8 dereferenceable(8) ptr @_ZNK3gmx12ArrayRefIterIPcEdeEv(ptr noundef nonnull align 8 dereferenceable(8) %0) #4 comdat align 2 {
  %2 = alloca ptr, align 8
  store ptr %0, ptr %2, align 8, !tbaa !302
  %3 = load ptr, ptr %2, align 8
  %4 = getelementptr inbounds nuw %"struct.gmx::ArrayRefIter.68", ptr %3, i32 0, i32 0
  %5 = load ptr, ptr %4, align 8, !tbaa !304
  ret ptr %5
}

; Function Attrs: mustprogress nounwind uwtable
define linkonce_odr noundef nonnull align 8 dereferenceable(8) ptr @_ZN3gmx12ArrayRefIterIPcEpLEl(ptr noundef nonnull align 8 dereferenceable(8) %0, i64 noundef %1) #4 comdat align 2 {
  %3 = alloca ptr, align 8
  %4 = alloca i64, align 8
  store ptr %0, ptr %3, align 8, !tbaa !302
  store i64 %1, ptr %4, align 8, !tbaa !62
  %5 = load ptr, ptr %3, align 8
  %6 = load i64, ptr %4, align 8, !tbaa !62
  %7 = getelementptr inbounds nuw %"struct.gmx::ArrayRefIter.68", ptr %5, i32 0, i32 0
  %8 = load ptr, ptr %7, align 8, !tbaa !304
  %9 = getelementptr inbounds ptr, ptr %8, i64 %6
  store ptr %9, ptr %7, align 8, !tbaa !304
  ret ptr %5
}

; Function Attrs: mustprogress nounwind uwtable
define linkonce_odr noundef nonnull align 8 dereferenceable(8) ptr @_ZNK3gmx5boost14stl_interfaces2v118iterator_interfaceINS_12ArrayRefIterIPcEESt26random_access_iterator_tagS5_RS5_PS5_lvE7derivedEv(ptr noundef nonnull align 1 dereferenceable(1) %0) #4 comdat align 2 {
  %2 = alloca ptr, align 8
  store ptr %0, ptr %2, align 8, !tbaa !307
  %3 = load ptr, ptr %2, align 8
  ret ptr %3
}

; Function Attrs: mustprogress nounwind uwtable
define linkonce_odr noundef nonnull align 8 dereferenceable(8) ptr @_ZNK3gmx5boost14stl_interfaces2v118iterator_interfaceINS_12ArrayRefIterIPcEESt26random_access_iterator_tagS5_RS5_PS5_lvEixIS6_EEDTcmpLclsr3stdE7declvalIRT_EEfp_declsr3stdE7declvalISD_EEEl(ptr noundef nonnull align 1 dereferenceable(1) %0, i64 noundef %1) #4 comdat align 2 {
  %3 = alloca ptr, align 8
  %4 = alloca i64, align 8
  %5 = alloca %"struct.gmx::ArrayRefIter.68", align 8
  store ptr %0, ptr %3, align 8, !tbaa !307
  store i64 %1, ptr %4, align 8, !tbaa !62
  %6 = load ptr, ptr %3, align 8
  call void @llvm.lifetime.start.p0(i64 8, ptr %5) #19
  %7 = call noundef nonnull align 8 dereferenceable(8) ptr @_ZNK3gmx5boost14stl_interfaces2v118iterator_interfaceINS_12ArrayRefIterIPcEESt26random_access_iterator_tagS5_RS5_PS5_lvE7derivedEv(ptr noundef nonnull align 1 dereferenceable(1) %6) #19
  call void @llvm.memcpy.p0.p0.i64(ptr align 8 %5, ptr align 8 %7, i64 8, i1 false)
  %8 = load i64, ptr %4, align 8, !tbaa !62
  %9 = call noundef nonnull align 8 dereferenceable(8) ptr @_ZN3gmx12ArrayRefIterIPcEpLEl(ptr noundef nonnull align 8 dereferenceable(8) %5, i64 noundef %8) #19
  %10 = call noundef nonnull align 8 dereferenceable(8) ptr @_ZNK3gmx12ArrayRefIterIPcEdeEv(ptr noundef nonnull align 8 dereferenceable(8) %5) #19
  call void @llvm.lifetime.end.p0(i64 8, ptr %5) #19
  ret ptr %10
}

; Function Attrs: mustprogress uwtable
define internal noundef zeroext i1 @_ZL9comp_namePKcS0_(ptr noundef %0, ptr noundef %1) #0 {
  %3 = alloca i1, align 1
  %4 = alloca ptr, align 8
  %5 = alloca ptr, align 8
  %6 = alloca i8, align 1
  %7 = alloca i32, align 4
  store ptr %0, ptr %4, align 8, !tbaa !24
  store ptr %1, ptr %5, align 8, !tbaa !24
  call void @llvm.lifetime.start.p0(i64 1, ptr %6) #19
  store i8 1, ptr %6, align 1, !tbaa !25
  br label %8

8:                                                ; preds = %70, %2
  %9 = load ptr, ptr %4, align 8, !tbaa !24
  %10 = load i8, ptr %9, align 1, !tbaa !91
  %11 = icmp ne i8 %10, 0
  br i1 %11, label %12, label %19

12:                                               ; preds = %8
  %13 = load ptr, ptr %5, align 8, !tbaa !24
  %14 = load i8, ptr %13, align 1, !tbaa !91
  %15 = icmp ne i8 %14, 0
  br i1 %15, label %16, label %19

16:                                               ; preds = %12
  %17 = load i8, ptr %6, align 1, !tbaa !25, !range !47, !noundef !48
  %18 = trunc i8 %17 to i1
  br label %19

19:                                               ; preds = %16, %12, %8
  %20 = phi i1 [ false, %12 ], [ false, %8 ], [ %18, %16 ]
  br i1 %20, label %21, label %75

21:                                               ; preds = %19
  %22 = load ptr, ptr %5, align 8, !tbaa !24
  %23 = load i8, ptr %22, align 1, !tbaa !91
  %24 = sext i8 %23 to i32
  %25 = icmp eq i32 %24, 63
  br i1 %25, label %26, label %27

26:                                               ; preds = %21
  br label %70

27:                                               ; preds = %21
  %28 = load ptr, ptr %5, align 8, !tbaa !24
  %29 = load i8, ptr %28, align 1, !tbaa !91
  %30 = sext i8 %29 to i32
  %31 = icmp eq i32 %30, 42
  br i1 %31, label %32, label %45

32:                                               ; preds = %27
  %33 = load ptr, ptr %5, align 8, !tbaa !24
  %34 = getelementptr inbounds i8, ptr %33, i64 1
  %35 = load i8, ptr %34, align 1, !tbaa !91
  %36 = icmp ne i8 %35, 0
  br i1 %36, label %37, label %39

37:                                               ; preds = %32
  %38 = call i32 (ptr, ...) @printf(ptr noundef @.str.152)
  br label %39

39:                                               ; preds = %37, %32
  %40 = load ptr, ptr %5, align 8, !tbaa !24
  %41 = getelementptr inbounds i8, ptr %40, i64 1
  %42 = load i8, ptr %41, align 1, !tbaa !91
  %43 = sext i8 %42 to i32
  %44 = icmp eq i32 %43, 0
  store i1 %44, ptr %3, align 1
  store i32 1, ptr %7, align 4
  br label %102

45:                                               ; preds = %27
  br label %46

46:                                               ; preds = %45
  %47 = load i8, ptr @_ZL5bCase, align 1, !tbaa !25, !range !47, !noundef !48
  %48 = trunc i8 %47 to i1
  br i1 %48, label %49, label %58

49:                                               ; preds = %46
  %50 = load ptr, ptr %4, align 8, !tbaa !24
  %51 = load i8, ptr %50, align 1, !tbaa !91
  %52 = sext i8 %51 to i32
  %53 = load ptr, ptr %5, align 8, !tbaa !24
  %54 = load i8, ptr %53, align 1, !tbaa !91
  %55 = sext i8 %54 to i32
  %56 = icmp eq i32 %52, %55
  %57 = zext i1 %56 to i8
  store i8 %57, ptr %6, align 1, !tbaa !25
  br label %69

58:                                               ; preds = %46
  %59 = load ptr, ptr %4, align 8, !tbaa !24
  %60 = load i8, ptr %59, align 1, !tbaa !91
  %61 = sext i8 %60 to i32
  %62 = call i32 @toupper(i32 noundef %61) #23
  %63 = load ptr, ptr %5, align 8, !tbaa !24
  %64 = load i8, ptr %63, align 1, !tbaa !91
  %65 = sext i8 %64 to i32
  %66 = call i32 @toupper(i32 noundef %65) #23
  %67 = icmp eq i32 %62, %66
  %68 = zext i1 %67 to i8
  store i8 %68, ptr %6, align 1, !tbaa !25
  br label %69

69:                                               ; preds = %58, %49
  br label %70

70:                                               ; preds = %69, %26
  %71 = load ptr, ptr %4, align 8, !tbaa !24
  %72 = getelementptr inbounds nuw i8, ptr %71, i32 1
  store ptr %72, ptr %4, align 8, !tbaa !24
  %73 = load ptr, ptr %5, align 8, !tbaa !24
  %74 = getelementptr inbounds nuw i8, ptr %73, i32 1
  store ptr %74, ptr %5, align 8, !tbaa !24
  br label %8, !llvm.loop !306

75:                                               ; preds = %19
  %76 = load i8, ptr %6, align 1, !tbaa !25, !range !47, !noundef !48
  %77 = trunc i8 %76 to i1
  br i1 %77, label %78, label %97

78:                                               ; preds = %75
  %79 = load ptr, ptr %4, align 8, !tbaa !24
  %80 = load i8, ptr %79, align 1, !tbaa !91
  %81 = sext i8 %80 to i32
  %82 = icmp eq i32 %81, 0
  br i1 %82, label %83, label %95

83:                                               ; preds = %78
  %84 = load ptr, ptr %5, align 8, !tbaa !24
  %85 = load i8, ptr %84, align 1, !tbaa !91
  %86 = sext i8 %85 to i32
  %87 = icmp eq i32 %86, 0
  br i1 %87, label %93, label %88

88:                                               ; preds = %83
  %89 = load ptr, ptr %5, align 8, !tbaa !24
  %90 = load i8, ptr %89, align 1, !tbaa !91
  %91 = sext i8 %90 to i32
  %92 = icmp eq i32 %91, 42
  br label %93

93:                                               ; preds = %88, %83
  %94 = phi i1 [ true, %83 ], [ %92, %88 ]
  br label %95

95:                                               ; preds = %93, %78
  %96 = phi i1 [ false, %78 ], [ %94, %93 ]
  br label %97

97:                                               ; preds = %95, %75
  %98 = phi i1 [ false, %75 ], [ %96, %95 ]
  %99 = zext i1 %98 to i8
  store i8 %99, ptr %6, align 1, !tbaa !25
  %100 = load i8, ptr %6, align 1, !tbaa !25, !range !47, !noundef !48
  %101 = trunc i8 %100 to i1
  store i1 %101, ptr %3, align 1
  store i32 1, ptr %7, align 4
  br label %102

102:                                              ; preds = %97, %39
  call void @llvm.lifetime.end.p0(i64 1, ptr %6) #19
  %103 = load i1, ptr %3, align 1
  ret i1 %103
}

; Function Attrs: mustprogress nounwind uwtable
define linkonce_odr noundef nonnull align 8 dereferenceable(8) ptr @_ZNK3gmx8ArrayRefIPcEixEm(ptr noundef nonnull align 8 dereferenceable(16) %0, i64 noundef %1) #4 comdat align 2 {
  %3 = alloca ptr, align 8
  %4 = alloca i64, align 8
  store ptr %0, ptr %3, align 8, !tbaa !253
  store i64 %1, ptr %4, align 8, !tbaa !62
  %5 = load ptr, ptr %3, align 8
  %6 = getelementptr inbounds nuw %"class.gmx::ArrayRef.67", ptr %5, i32 0, i32 0
  %7 = load i64, ptr %4, align 8, !tbaa !62
  %8 = call noundef nonnull align 8 dereferenceable(8) ptr @_ZNK3gmx5boost14stl_interfaces2v118iterator_interfaceINS_12ArrayRefIterIPcEESt26random_access_iterator_tagS5_RS5_PS5_lvEixIS6_EEDTcmpLclsr3stdE7declvalIRT_EEfp_declsr3stdE7declvalISD_EEEl(ptr noundef nonnull align 1 dereferenceable(1) %6, i64 noundef %7) #19
  ret ptr %8
}

; Function Attrs: mustprogress uwtable
define internal noundef i32 @_ZL19select_residuenamesPK7t_atomsiN3gmx8ArrayRefIPcEEPiS6_(ptr noundef %0, i32 noundef %1, ptr %2, ptr %3, ptr noundef %4, ptr noundef %5) #0 {
  %7 = alloca %"class.gmx::ArrayRef.67", align 8
  %8 = alloca ptr, align 8
  %9 = alloca i32, align 4
  %10 = alloca ptr, align 8
  %11 = alloca ptr, align 8
  %12 = alloca ptr, align 8
  %13 = alloca i32, align 4
  %14 = alloca i32, align 4
  %15 = getelementptr inbounds nuw { ptr, ptr }, ptr %7, i32 0, i32 0
  store ptr %2, ptr %15, align 8
  %16 = getelementptr inbounds nuw { ptr, ptr }, ptr %7, i32 0, i32 1
  store ptr %3, ptr %16, align 8
  store ptr %0, ptr %8, align 8, !tbaa !87
  store i32 %1, ptr %9, align 4, !tbaa !4
  store ptr %4, ptr %10, align 8, !tbaa !97
  store ptr %5, ptr %11, align 8, !tbaa !97
  call void @llvm.lifetime.start.p0(i64 8, ptr %12) #19
  call void @llvm.lifetime.start.p0(i64 4, ptr %13) #19
  call void @llvm.lifetime.start.p0(i64 4, ptr %14) #19
  %17 = load ptr, ptr %10, align 8, !tbaa !97
  store i32 0, ptr %17, align 4, !tbaa !4
  store i32 0, ptr %14, align 4, !tbaa !4
  br label %18

18:                                               ; preds = %73, %6
  %19 = load i32, ptr %14, align 4, !tbaa !4
  %20 = load ptr, ptr %8, align 8, !tbaa !87
  %21 = getelementptr inbounds nuw %struct.t_atoms, ptr %20, i32 0, i32 0
  %22 = load i32, ptr %21, align 8, !tbaa !41
  %23 = icmp slt i32 %19, %22
  br i1 %23, label %24, label %76

24:                                               ; preds = %18
  %25 = load ptr, ptr %8, align 8, !tbaa !87
  %26 = getelementptr inbounds nuw %struct.t_atoms, ptr %25, i32 0, i32 6
  %27 = load ptr, ptr %26, align 8, !tbaa !228
  %28 = load ptr, ptr %8, align 8, !tbaa !87
  %29 = getelementptr inbounds nuw %struct.t_atoms, ptr %28, i32 0, i32 1
  %30 = load ptr, ptr %29, align 8, !tbaa !222
  %31 = load i32, ptr %14, align 4, !tbaa !4
  %32 = sext i32 %31 to i64
  %33 = getelementptr inbounds %struct.t_atom, ptr %30, i64 %32
  %34 = getelementptr inbounds nuw %struct.t_atom, ptr %33, i32 0, i32 7
  %35 = load i32, ptr %34, align 4, !tbaa !223
  %36 = sext i32 %35 to i64
  %37 = getelementptr inbounds %struct.t_resinfo, ptr %27, i64 %36
  %38 = getelementptr inbounds nuw %struct.t_resinfo, ptr %37, i32 0, i32 0
  %39 = load ptr, ptr %38, align 8, !tbaa !229
  %40 = load ptr, ptr %39, align 8, !tbaa !24
  store ptr %40, ptr %12, align 8, !tbaa !24
  store i32 0, ptr %13, align 4, !tbaa !4
  br label %41

41:                                               ; preds = %55, %24
  %42 = load i32, ptr %13, align 4, !tbaa !4
  %43 = load i32, ptr %9, align 4, !tbaa !4
  %44 = icmp slt i32 %42, %43
  br i1 %44, label %45, label %53

45:                                               ; preds = %41
  %46 = load ptr, ptr %12, align 8, !tbaa !24
  %47 = load i32, ptr %13, align 4, !tbaa !4
  %48 = sext i32 %47 to i64
  %49 = call noundef nonnull align 8 dereferenceable(8) ptr @_ZNK3gmx8ArrayRefIPcEixEm(ptr noundef nonnull align 8 dereferenceable(16) %7, i64 noundef %48)
  %50 = load ptr, ptr %49, align 8, !tbaa !24
  %51 = call noundef zeroext i1 @_ZL9comp_namePKcS0_(ptr noundef %46, ptr noundef %50)
  %52 = xor i1 %51, true
  br label %53

53:                                               ; preds = %45, %41
  %54 = phi i1 [ false, %41 ], [ %52, %45 ]
  br i1 %54, label %55, label %58

55:                                               ; preds = %53
  %56 = load i32, ptr %13, align 4, !tbaa !4
  %57 = add nsw i32 %56, 1
  store i32 %57, ptr %13, align 4, !tbaa !4
  br label %41, !llvm.loop !295

58:                                               ; preds = %53
  %59 = load i32, ptr %13, align 4, !tbaa !4
  %60 = load i32, ptr %9, align 4, !tbaa !4
  %61 = icmp slt i32 %59, %60
  br i1 %61, label %62, label %72

62:                                               ; preds = %58
  %63 = load i32, ptr %14, align 4, !tbaa !4
  %64 = load ptr, ptr %11, align 8, !tbaa !97
  %65 = load ptr, ptr %10, align 8, !tbaa !97
  %66 = load i32, ptr %65, align 4, !tbaa !4
  %67 = sext i32 %66 to i64
  %68 = getelementptr inbounds i32, ptr %64, i64 %67
  store i32 %63, ptr %68, align 4, !tbaa !4
  %69 = load ptr, ptr %10, align 8, !tbaa !97
  %70 = load i32, ptr %69, align 4, !tbaa !4
  %71 = add nsw i32 %70, 1
  store i32 %71, ptr %69, align 4, !tbaa !4
  br label %72

72:                                               ; preds = %62, %58
  br label %73

73:                                               ; preds = %72
  %74 = load i32, ptr %14, align 4, !tbaa !4
  %75 = add nsw i32 %74, 1
  store i32 %75, ptr %14, align 4, !tbaa !4
  br label %18, !llvm.loop !296

76:                                               ; preds = %18
  %77 = load ptr, ptr %10, align 8, !tbaa !97
  %78 = load i32, ptr %77, align 4, !tbaa !4
  %79 = load i32, ptr %9, align 4, !tbaa !4
  %80 = icmp eq i32 %79, 1
  %81 = select i1 %80, ptr @.str.6, ptr @.str.140
  %82 = call i32 (ptr, ...) @printf(ptr noundef @.str.162, i32 noundef %78, ptr noundef %81)
  store i32 0, ptr %13, align 4, !tbaa !4
  br label %83

83:                                               ; preds = %93, %76
  %84 = load i32, ptr %13, align 4, !tbaa !4
  %85 = load i32, ptr %9, align 4, !tbaa !4
  %86 = icmp slt i32 %84, %85
  br i1 %86, label %87, label %96

87:                                               ; preds = %83
  %88 = load i32, ptr %13, align 4, !tbaa !4
  %89 = sext i32 %88 to i64
  %90 = call noundef nonnull align 8 dereferenceable(8) ptr @_ZNK3gmx8ArrayRefIPcEixEm(ptr noundef nonnull align 8 dereferenceable(16) %7, i64 noundef %89)
  %91 = load ptr, ptr %90, align 8, !tbaa !24
  %92 = call i32 (ptr, ...) @printf(ptr noundef @.str.151, ptr noundef %91)
  br label %93

93:                                               ; preds = %87
  %94 = load i32, ptr %13, align 4, !tbaa !4
  %95 = add nsw i32 %94, 1
  store i32 %95, ptr %13, align 4, !tbaa !4
  br label %83, !llvm.loop !297

96:                                               ; preds = %83
  %97 = call i32 (ptr, ...) @printf(ptr noundef @.str.45)
  %98 = load ptr, ptr %10, align 8, !tbaa !97
  %99 = load i32, ptr %98, align 4, !tbaa !4
  call void @llvm.lifetime.end.p0(i64 4, ptr %14) #19
  call void @llvm.lifetime.end.p0(i64 4, ptr %13) #19
  call void @llvm.lifetime.end.p0(i64 8, ptr %12) #19
  ret i32 %99
}