; Function Attrs: mustprogress nofree nounwind uwtable
define internal fastcc noundef i32 @_ZL19select_residuenamesPK7t_atomsiN3gmx8ArrayRefIPcEEPiS6_(ptr noundef nonnull readonly captures(none) %0, i32 noundef %1, ptr readonly captures(none) %2, ptr noundef nonnull captures(none) initializes((0, 4)) %3, ptr noundef writeonly captures(none) %4) unnamed_addr #20 {
  store i32 0, ptr %3, align 4, !tbaa !4
  %6 = load i32, ptr %0, align 8, !tbaa !46
  %7 = icmp sgt i32 %6, 0
  br i1 %7, label %.lr.ph42, label %._crit_edge

.lr.ph42:                                         ; preds = %5
  %8 = getelementptr inbounds nuw i8, ptr %0, i64 48
  %9 = getelementptr inbounds nuw i8, ptr %0, i64 8
  %10 = icmp sgt i32 %1, 0
  br i1 %10, label %.lr.ph.us.preheader, label %._crit_edge

.lr.ph.us.preheader:                              ; preds = %.lr.ph42
  %wide.trip.count = zext nneg i32 %1 to i64
  %wide.trip.count67 = zext nneg i32 %1 to i64
  br label %.lr.ph.us

.lr.ph.us:                                        ; preds = %.lr.ph.us.preheader, %.critedge25.us
  %indvars.iv69 = phi i64 [ 0, %.lr.ph.us.preheader ], [ %indvars.iv.next70, %.critedge25.us ]
  %11 = load ptr, ptr %8, align 8, !tbaa !77
  %12 = load ptr, ptr %9, align 8, !tbaa !71
  %13 = getelementptr inbounds nuw %struct.t_atom, ptr %12, i64 %indvars.iv69, i32 7
  %14 = load i32, ptr %13, align 4, !tbaa !72
  %15 = sext i32 %14 to i64
  %16 = getelementptr inbounds %struct.t_resinfo, ptr %11, i64 %15
  %17 = load ptr, ptr %16, align 8, !tbaa !78
  %18 = load ptr, ptr %17, align 8, !tbaa !21
  %19 = load i8, ptr %18, align 1, !tbaa !32
  %20 = icmp eq i8 %19, 0
  br i1 %20, label %.critedge.thread48.i.us.us, label %.lr.ph.split.us48

.lr.ph.split.us48thread-pre-split:                ; preds = %_ZL9comp_namePKcS0_.exit.thread.us46
  %.pr = load i8, ptr %18, align 1, !tbaa !32
  br label %.lr.ph.split.us48

.lr.ph.split.us48:                                ; preds = %.lr.ph.us, %.lr.ph.split.us48thread-pre-split
  %21 = phi i8 [ %.pr, %.lr.ph.split.us48thread-pre-split ], [ %19, %.lr.ph.us ]
  %indvars.iv = phi i64 [ %indvars.iv.next, %.lr.ph.split.us48thread-pre-split ], [ 0, %.lr.ph.us ]
  %22 = getelementptr inbounds nuw ptr, ptr %2, i64 %indvars.iv
  %23 = load ptr, ptr %22, align 8, !tbaa !21
  %.not32.i.us = icmp eq i8 %21, 0
  br i1 %.not32.i.us, label %.critedge.thread48.i.us44, label %.lr.ph.i.us

.lr.ph.i.us:                                      ; preds = %.lr.ph.split.us48
  %24 = load i8, ptr @_ZL5bCase, align 1, !range !62
  %.fr39.i.us = freeze i8 %24
  %25 = trunc i8 %.fr39.i.us to i1
  br i1 %25, label %.lr.ph.split.us.i.us, label %.lr.ph.split.i.us

.lr.ph.split.i.us:                                ; preds = %.lr.ph.i.us, %35
  %26 = phi i8 [ %38, %35 ], [ %21, %.lr.ph.i.us ]
  %.035.i.us = phi i1 [ %.1.shrunk.i.us, %35 ], [ true, %.lr.ph.i.us ]
  %.01834.i.us = phi ptr [ %37, %35 ], [ %23, %.lr.ph.i.us ]
  %.01933.i.us = phi ptr [ %36, %35 ], [ %18, %.lr.ph.i.us ]
  %27 = load i8, ptr %.01834.i.us, align 1, !tbaa !32
  %.not25.i.us = icmp ne i8 %27, 0
  %brmerge.not.i.us = select i1 %.not25.i.us, i1 %.035.i.us, i1 false
  br i1 %brmerge.not.i.us, label %28, label %_ZL9comp_namePKcS0_.exit.thread.us46

28:                                               ; preds = %.lr.ph.split.i.us
  switch i8 %27, label %29 [
    i8 63, label %35
    i8 42, label %.split.us.i.us
  ]

29:                                               ; preds = %28
  %30 = sext i8 %27 to i32
  %31 = sext i8 %26 to i32
  %32 = tail call i32 @toupper(i32 noundef %31) #31
  %33 = tail call i32 @toupper(i32 noundef %30) #31
  %34 = icmp eq i32 %32, %33
  br label %35

35:                                               ; preds = %29, %28
  %.1.shrunk.i.us = phi i1 [ true, %28 ], [ %34, %29 ]
  %36 = getelementptr inbounds nuw i8, ptr %.01933.i.us, i64 1
  %37 = getelementptr inbounds nuw i8, ptr %.01834.i.us, i64 1
  %38 = load i8, ptr %36, align 1, !tbaa !32
  %.not.i.us = icmp eq i8 %38, 0
  br i1 %.not.i.us, label %.critedge.i.us, label %.lr.ph.split.i.us, !llvm.loop !137

.lr.ph.split.us.i.us:                             ; preds = %.lr.ph.i.us, %47
  %39 = phi i8 [ %50, %47 ], [ %21, %.lr.ph.i.us ]
  %.035.us.i.us = phi i1 [ %.1.shrunk.us.i.us, %47 ], [ true, %.lr.ph.i.us ]
  %.01834.us.i.us = phi ptr [ %49, %47 ], [ %23, %.lr.ph.i.us ]
  %.01933.us.i.us = phi ptr [ %48, %47 ], [ %18, %.lr.ph.i.us ]
  %40 = load i8, ptr %.01834.us.i.us, align 1, !tbaa !32
  %.not25.us.i.us = icmp ne i8 %40, 0
  %brmerge.us.not.i.us = and i1 %.035.us.i.us, %.not25.us.i.us
  br i1 %brmerge.us.not.i.us, label %41, label %_ZL9comp_namePKcS0_.exit.thread.us46

41:                                               ; preds = %.lr.ph.split.us.i.us
  switch i8 %40, label %45 [
    i8 63, label %47
    i8 42, label %.split.us.i.us
  ]

.split.us.i.us:                                   ; preds = %28, %41
  %.us-phi.i.us = phi ptr [ %.01834.us.i.us, %41 ], [ %.01834.i.us, %28 ]
  %42 = getelementptr inbounds nuw i8, ptr %.us-phi.i.us, i64 1
  %43 = load i8, ptr %42, align 1, !tbaa !32
  %.not26.i.us = icmp eq i8 %43, 0
  br i1 %.not26.i.us, label %.critedge.us, label %_ZL9comp_namePKcS0_.exit.us

_ZL9comp_namePKcS0_.exit.us:                      ; preds = %.split.us.i.us
  %puts.i.us = tail call i32 @puts(ptr nonnull dereferenceable(1) @str.51)
  %.pre.i.us = load i8, ptr %42, align 1, !tbaa !32
  %44 = icmp eq i8 %.pre.i.us, 0
  br i1 %44, label %.critedge.us, label %_ZL9comp_namePKcS0_.exit.thread.us46

45:                                               ; preds = %41
  %46 = icmp eq i8 %39, %40
  br label %47

47:                                               ; preds = %45, %41
  %.1.shrunk.us.i.us = phi i1 [ true, %41 ], [ %46, %45 ]
  %48 = getelementptr inbounds nuw i8, ptr %.01933.us.i.us, i64 1
  %49 = getelementptr inbounds nuw i8, ptr %.01834.us.i.us, i64 1
  %50 = load i8, ptr %48, align 1, !tbaa !32
  %.not.us.i.us = icmp eq i8 %50, 0
  br i1 %.not.us.i.us, label %.critedge.i.us, label %.lr.ph.split.us.i.us, !llvm.loop !137

.critedge.i.us:                                   ; preds = %35, %47
  %.018.lcssa.i.us = phi ptr [ %49, %47 ], [ %37, %35 ]
  %.0.lcssa.i.us = phi i1 [ %.1.shrunk.us.i.us, %47 ], [ %.1.shrunk.i.us, %35 ]
  br i1 %.0.lcssa.i.us, label %.critedge.thread48.i.us44, label %_ZL9comp_namePKcS0_.exit.thread.us46

.critedge.thread48.i.us44:                        ; preds = %.critedge.i.us, %.lr.ph.split.us48
  %.018.lcssa51.i.us = phi ptr [ %.018.lcssa.i.us, %.critedge.i.us ], [ %23, %.lr.ph.split.us48 ]
  %51 = load i8, ptr %.018.lcssa51.i.us, align 1, !tbaa !32
  switch i8 %51, label %_ZL9comp_namePKcS0_.exit.thread.us46 [
    i8 42, label %.critedge.us
    i8 0, label %.critedge.us
  ]

.critedge25.us:                                   ; preds = %_ZL9comp_namePKcS0_.exit.thread.us46, %_ZL9comp_namePKcS0_.exit.thread.us.us, %.critedge.us
  %indvars.iv.next70 = add nuw nsw i64 %indvars.iv69, 1
  %52 = load i32, ptr %0, align 8, !tbaa !46
  %53 = sext i32 %52 to i64
  %54 = icmp slt i64 %indvars.iv.next70, %53
  br i1 %54, label %.lr.ph.us, label %._crit_edge.loopexit, !llvm.loop !156

_ZL9comp_namePKcS0_.exit.thread.us46:             ; preds = %.lr.ph.split.i.us, %.lr.ph.split.us.i.us, %.critedge.thread48.i.us44, %.critedge.i.us, %_ZL9comp_namePKcS0_.exit.us
  %indvars.iv.next = add nuw nsw i64 %indvars.iv, 1
  %exitcond.not = icmp eq i64 %indvars.iv.next, %wide.trip.count
  br i1 %exitcond.not, label %.critedge25.us, label %.lr.ph.split.us48thread-pre-split, !llvm.loop !157

.critedge.us:                                     ; preds = %.split.us.i.us, %_ZL9comp_namePKcS0_.exit.us, %.critedge.thread48.i.us44, %.critedge.thread48.i.us44, %.critedge.thread48.i.us.us, %.critedge.thread48.i.us.us
  %55 = load i32, ptr %3, align 4, !tbaa !4
  %56 = sext i32 %55 to i64
  %57 = getelementptr inbounds i32, ptr %4, i64 %56
  %58 = trunc nuw nsw i64 %indvars.iv69 to i32
  store i32 %58, ptr %57, align 4, !tbaa !4
  %59 = load i32, ptr %3, align 4, !tbaa !4
  %60 = add nsw i32 %59, 1
  store i32 %60, ptr %3, align 4, !tbaa !4
  br label %.critedge25.us

.critedge.thread48.i.us.us:                       ; preds = %.lr.ph.us, %_ZL9comp_namePKcS0_.exit.thread.us.us
  %indvars.iv64 = phi i64 [ %indvars.iv.next65, %_ZL9comp_namePKcS0_.exit.thread.us.us ], [ 0, %.lr.ph.us ]
  %61 = getelementptr inbounds nuw ptr, ptr %2, i64 %indvars.iv64
  %62 = load ptr, ptr %61, align 8, !tbaa !21
  %63 = load i8, ptr %62, align 1, !tbaa !32
  switch i8 %63, label %_ZL9comp_namePKcS0_.exit.thread.us.us [
    i8 42, label %.critedge.us
    i8 0, label %.critedge.us
  ]

_ZL9comp_namePKcS0_.exit.thread.us.us:            ; preds = %.critedge.thread48.i.us.us
  %indvars.iv.next65 = add nuw nsw i64 %indvars.iv64, 1
  %exitcond68.not = icmp eq i64 %indvars.iv.next65, %wide.trip.count67
  br i1 %exitcond68.not, label %.critedge25.us, label %.critedge.thread48.i.us.us, !llvm.loop !158

._crit_edge.loopexit:                             ; preds = %.critedge25.us
  %.pre = load i32, ptr %3, align 4, !tbaa !4
  br label %._crit_edge

._crit_edge:                                      ; preds = %.lr.ph42, %._crit_edge.loopexit, %5
  %64 = phi i32 [ %.pre, %._crit_edge.loopexit ], [ 0, %5 ], [ 0, %.lr.ph42 ]
  %65 = icmp eq i32 %1, 1
  %66 = select i1 %65, ptr @.str.6, ptr @.str.140
  %67 = tail call i32 (ptr, ...) @printf(ptr noundef nonnull dereferenceable(1) @.str.162, i32 noundef %64, ptr noundef nonnull %66)
  %68 = icmp sgt i32 %1, 0
  br i1 %68, label %.lr.ph.preheader, label %._crit_edge51

.lr.ph.preheader:                                 ; preds = %._crit_edge
  %wide.trip.count75 = zext nneg i32 %1 to i64
  br label %.lr.ph

.lr.ph:                                           ; preds = %.lr.ph.preheader, %.lr.ph
  %indvars.iv72 = phi i64 [ 0, %.lr.ph.preheader ], [ %indvars.iv.next73, %.lr.ph ]
  %69 = getelementptr inbounds nuw ptr, ptr %2, i64 %indvars.iv72
  %70 = load ptr, ptr %69, align 8, !tbaa !21
  %71 = tail call i32 (ptr, ...) @printf(ptr noundef nonnull dereferenceable(1) @.str.151, ptr noundef %70)
  %indvars.iv.next73 = add nuw nsw i64 %indvars.iv72, 1
  %exitcond76.not = icmp eq i64 %indvars.iv.next73, %wide.trip.count75
  br i1 %exitcond76.not, label %._crit_edge51, label %.lr.ph, !llvm.loop !159

._crit_edge51:                                    ; preds = %.lr.ph, %._crit_edge
  %putchar = tail call i32 @putchar(i32 10)
  %72 = load i32, ptr %3, align 4, !tbaa !4
  ret i32 %72
}